target datalayout = "e-m:e-p270:32:32-p271:32:32-p272:64:64-i64:64-i128:128-f80:128-n8:16:32:64-S128"
target triple = "x86_64-pc-linux-gnu"

%struct.sbcast_cred_arg_t = type { i32, i32, i32, ptr, i64, ptr }

; Function Attrs: nounwind uwtable
define dso_local ptr @sbcast_cred_pack(ptr noundef %0, i16 noundef zeroext %1) #0 {
  %3 = alloca ptr, align 8
  %4 = alloca i16, align 2
  %5 = alloca ptr, align 8
  %6 = alloca i64, align 8
  %7 = alloca i32, align 4
  store ptr %0, ptr %3, align 8
  store i16 %1, ptr %4, align 2
  call void @llvm.lifetime.start.p0(i64 8, ptr %5) #6
  %8 = call ptr @init_buf(i32 noundef 4096)
  store ptr %8, ptr %5, align 8
  call void @llvm.lifetime.start.p0(i64 8, ptr %6) #6
  %9 = call i64 @time(ptr noundef null) #6
  store i64 %9, ptr %6, align 8
  %10 = load i16, ptr %4, align 2
  %11 = zext i16 %10 to i32
  %12 = icmp sge i32 %11, 10240
  br i1 %12, label %13, label %57

13:                                               ; preds = %2
  %14 = load ptr, ptr %3, align 8
  %15 = getelementptr inbounds nuw %struct.sbcast_cred_arg_t, ptr %14, i32 0, i32 3
  %16 = load ptr, ptr %15, align 8
  %17 = load ptr, ptr %5, align 8
  %18 = load i16, ptr %4, align 2
  call void @pack_identity(ptr noundef %16, ptr noundef %17, i16 noundef zeroext %18)
  %19 = load i64, ptr %6, align 8
  %20 = load ptr, ptr %5, align 8
  call void @pack_time(i64 noundef %19, ptr noundef %20)
  %21 = load ptr, ptr %3, align 8
  %22 = getelementptr inbounds nuw %struct.sbcast_cred_arg_t, ptr %21, i32 0, i32 4
  %23 = load i64, ptr %22, align 8
  %24 = load ptr, ptr %5, align 8
  call void @pack_time(i64 noundef %23, ptr noundef %24)
  %25 = load ptr, ptr %3, align 8
  %26 = getelementptr inbounds nuw %struct.sbcast_cred_arg_t, ptr %25, i32 0, i32 0
  %27 = load i32, ptr %26, align 8
  %28 = load ptr, ptr %5, align 8
  call void @pack32(i32 noundef %27, ptr noundef %28)
  %29 = load ptr, ptr %3, align 8
  %30 = getelementptr inbounds nuw %struct.sbcast_cred_arg_t, ptr %29, i32 0, i32 1
  %31 = load i32, ptr %30, align 4
  %32 = load ptr, ptr %5, align 8
  call void @pack32(i32 noundef %31, ptr noundef %32)
  %33 = load ptr, ptr %3, align 8
  %34 = getelementptr inbounds nuw %struct.sbcast_cred_arg_t, ptr %33, i32 0, i32 2
  %35 = load i32, ptr %34, align 8
  %36 = load ptr, ptr %5, align 8
  call void @pack32(i32 noundef %35, ptr noundef %36)
  br label %37

37:                                               ; preds = %13
  call void @llvm.lifetime.start.p0(i64 4, ptr %7) #6
  store i32 0, ptr %7, align 4
  %38 = load ptr, ptr %3, align 8
  %39 = getelementptr inbounds nuw %struct.sbcast_cred_arg_t, ptr %38, i32 0, i32 5
  %40 = load ptr, ptr %39, align 8
  %41 = icmp ne ptr %40, null
  br i1 %41, label %42, label %49

42:                                               ; preds = %37
  %43 = load ptr, ptr %3, align 8
  %44 = getelementptr inbounds nuw %struct.sbcast_cred_arg_t, ptr %43, i32 0, i32 5
  %45 = load ptr, ptr %44, align 8
  %46 = call i64 @strlen(ptr noundef %45) #7
  %47 = trunc i64 %46 to i32
  %48 = add i32 %47, 1
  store i32 %48, ptr %7, align 4
  br label %49

49:                                               ; preds = %42, %37
  %50 = load ptr, ptr %3, align 8
  %51 = getelementptr inbounds nuw %struct.sbcast_cred_arg_t, ptr %50, i32 0, i32 5
  %52 = load ptr, ptr %51, align 8
  %53 = load i32, ptr %7, align 4
  %54 = load ptr, ptr %5, align 8
  call void @packmem(ptr noundef %52, i32 noundef %53, ptr noundef %54)
  call void @llvm.lifetime.end.p0(i64 4, ptr %7) #6
  br label %55

55:                                               ; preds = %49
  br label %56

56:                                               ; preds = %55
  br label %57

57:                                               ; preds = %56, %2
  %58 = load ptr, ptr %5, align 8
  call void @llvm.lifetime.end.p0(i64 8, ptr %6) #6
  call void @llvm.lifetime.end.p0(i64 8, ptr %5) #6
  ret ptr %58
}