; Function Attrs: nounwind uwtable
define dso_local ptr @sbcast_cred_pack(ptr noundef readonly captures(none) %0, i16 noundef zeroext %1) local_unnamed_addr #0 {
  %3 = tail call ptr @init_buf(i32 noundef 4096) #6
  %4 = tail call i64 @time(ptr noundef null) #6
  %5 = icmp ugt i16 %1, 10239
  br i1 %5, label %6, label %23

6:                                                ; preds = %2
  %7 = getelementptr inbounds nuw i8, ptr %0, i64 16
  %8 = load ptr, ptr %7, align 8
  tail call void @pack_identity(ptr noundef %8, ptr noundef %3, i16 noundef zeroext %1) #6
  tail call void @pack_time(i64 noundef %4, ptr noundef %3) #6
  %9 = getelementptr inbounds nuw i8, ptr %0, i64 24
  %10 = load i64, ptr %9, align 8
  tail call void @pack_time(i64 noundef %10, ptr noundef %3) #6
  %11 = load i32, ptr %0, align 8
  tail call void @pack32(i32 noundef %11, ptr noundef %3) #6
  %12 = getelementptr inbounds nuw i8, ptr %0, i64 4
  %13 = load i32, ptr %12, align 4
  tail call void @pack32(i32 noundef %13, ptr noundef %3) #6
  %14 = getelementptr inbounds nuw i8, ptr %0, i64 8
  %15 = load i32, ptr %14, align 8
  tail call void @pack32(i32 noundef %15, ptr noundef %3) #6
  %16 = getelementptr inbounds nuw i8, ptr %0, i64 32
  %17 = load ptr, ptr %16, align 8
  %.not = icmp eq ptr %17, null
  br i1 %.not, label %22, label %18

18:                                               ; preds = %6
  %19 = tail call i64 @strlen(ptr noundef nonnull dereferenceable(1) %17) #7
  %20 = trunc i64 %19 to i32
  %21 = add i32 %20, 1
  br label %22

22:                                               ; preds = %18, %6
  %.0 = phi i32 [ %21, %18 ], [ 0, %6 ]
  tail call void @packmem(ptr noundef %17, i32 noundef %.0, ptr noundef %3) #6
  br label %23

23:                                               ; preds = %22, %2
  ret ptr %3
}